target datalayout = "e-m:e-p270:32:32-p271:32:32-p272:64:64-i64:64-i128:128-f80:128-n8:16:32:64-S128"
target triple = "x86_64-pc-linux-gnu"

%struct._zval_struct = type { %union._zend_value, %union.anon, %union.anon.2 }
%union._zend_value = type { i64 }
%union.anon = type { i32 }
%union.anon.2 = type { i32 }
%struct._zend_refcounted_h = type { i32, %union.anon.3 }
%union.anon.3 = type { i32 }
%struct.zend_get_gc_buffer = type { ptr, ptr, ptr }
%struct._zend_object = type { %struct._zend_refcounted_h, i32, ptr, ptr, ptr, [1 x %struct._zval_struct] }
%struct.anon.0 = type { i8, i8, %union.anon.1 }
%union.anon.1 = type { i16 }
%struct._spl_recursive_it_object = type { ptr, i32, i32, i32, i32, i8, ptr, ptr, ptr, ptr, ptr, ptr, ptr, ptr, [6 x ptr], [1 x ptr], %struct._zend_object }
%struct._spl_sub_iterator = type { ptr, %struct._zval_struct, ptr, i32, ptr, ptr }
%struct._zend_object_iterator = type { %struct._zend_object, %struct._zval_struct, ptr, i64 }

; Function Attrs: nounwind uwtable
define internal ptr @spl_recursive_it_from_obj(ptr noundef %0) #0 {
  %2 = alloca ptr, align 8
  store ptr %0, ptr %2, align 8
  %3 = load ptr, ptr %2, align 8
  %4 = getelementptr inbounds i8, ptr %3, i64 -152
  ret ptr %4
}

; Function Attrs: nounwind uwtable
define internal ptr @spl_RecursiveIteratorIterator_get_gc(ptr noundef %0, ptr noundef %1, ptr noundef %2) #0 {
  %4 = alloca ptr, align 8
  %5 = alloca ptr, align 8
  %6 = alloca ptr, align 8
  %7 = alloca ptr, align 8
  %8 = alloca ptr, align 8
  %9 = alloca ptr, align 8
  %10 = alloca ptr, align 8
  %11 = alloca ptr, align 8
  %12 = alloca ptr, align 8
  %13 = alloca ptr, align 8
  %14 = alloca ptr, align 8
  %15 = alloca i32, align 4
  %16 = alloca ptr, align 8
  %17 = alloca ptr, align 8
  %18 = alloca ptr, align 8
  %19 = alloca ptr, align 8
  %20 = alloca ptr, align 8
  %21 = alloca i32, align 4
  store ptr %0, ptr %16, align 8
  store ptr %1, ptr %17, align 8
  store ptr %2, ptr %18, align 8
  %22 = load ptr, ptr %16, align 8
  %23 = call ptr @spl_recursive_it_from_obj(ptr noundef %22)
  store ptr %23, ptr %19, align 8
  %24 = call ptr @zend_get_gc_buffer_create()
  store ptr %24, ptr %20, align 8
  %25 = load ptr, ptr %19, align 8
  %26 = getelementptr inbounds %struct._spl_recursive_it_object, ptr %25, i32 0, i32 0
  %27 = load ptr, ptr %26, align 8
  %28 = icmp ne ptr %27, null
  br i1 %28, label %29, label %110

29:                                               ; preds = %3
  store i32 0, ptr %21, align 4
  br label %30

30:                                               ; preds = %106, %29
  %31 = load i32, ptr %21, align 4
  %32 = load ptr, ptr %19, align 8
  %33 = getelementptr inbounds %struct._spl_recursive_it_object, ptr %32, i32 0, i32 1
  %34 = load i32, ptr %33, align 8
  %35 = icmp sle i32 %31, %34
  br i1 %35, label %36, label %109

36:                                               ; preds = %30
  %37 = load ptr, ptr %20, align 8
  %38 = load ptr, ptr %19, align 8
  %39 = getelementptr inbounds %struct._spl_recursive_it_object, ptr %38, i32 0, i32 0
  %40 = load ptr, ptr %39, align 8
  %41 = load i32, ptr %21, align 4
  %42 = sext i32 %41 to i64
  %43 = getelementptr inbounds %struct._spl_sub_iterator, ptr %40, i64 %42
  %44 = getelementptr inbounds %struct._spl_sub_iterator, ptr %43, i32 0, i32 1
  store ptr %37, ptr %10, align 8
  store ptr %44, ptr %11, align 8
  %45 = load ptr, ptr %11, align 8
  %46 = getelementptr inbounds %struct._zval_struct, ptr %45, i32 0, i32 1
  %47 = getelementptr inbounds %struct.anon.0, ptr %46, i32 0, i32 1
  %48 = load i8, ptr %47, align 1
  %49 = zext i8 %48 to i32
  %50 = icmp ne i32 %49, 0
  br i1 %50, label %51, label %77

51:                                               ; preds = %36
  %52 = load ptr, ptr %10, align 8
  %53 = load ptr, ptr %52, align 8
  %54 = load ptr, ptr %10, align 8
  %55 = getelementptr inbounds %struct.zend_get_gc_buffer, ptr %54, i32 0, i32 1
  %56 = load ptr, ptr %55, align 8
  %57 = icmp eq ptr %53, %56
  br i1 %57, label %58, label %60

58:                                               ; preds = %51
  %59 = load ptr, ptr %10, align 8
  call void @zend_get_gc_buffer_grow(ptr noundef %59) #10
  br label %60

60:                                               ; preds = %58, %51
  %61 = load ptr, ptr %10, align 8
  %62 = load ptr, ptr %61, align 8
  store ptr %62, ptr %12, align 8
  %63 = load ptr, ptr %11, align 8
  store ptr %63, ptr %13, align 8
  %64 = load ptr, ptr %13, align 8
  %65 = load ptr, ptr %64, align 8
  store ptr %65, ptr %14, align 8
  %66 = load ptr, ptr %13, align 8
  %67 = getelementptr inbounds %struct._zval_struct, ptr %66, i32 0, i32 1
  %68 = load i32, ptr %67, align 8
  store i32 %68, ptr %15, align 4
  %69 = load ptr, ptr %14, align 8
  %70 = load ptr, ptr %12, align 8
  store ptr %69, ptr %70, align 8
  %71 = load i32, ptr %15, align 4
  %72 = load ptr, ptr %12, align 8
  %73 = getelementptr inbounds %struct._zval_struct, ptr %72, i32 0, i32 1
  store i32 %71, ptr %73, align 8
  %74 = load ptr, ptr %10, align 8
  %75 = load ptr, ptr %74, align 8
  %76 = getelementptr inbounds %struct._zval_struct, ptr %75, i32 1
  store ptr %76, ptr %74, align 8
  br label %77

77:                                               ; preds = %60, %36
  %78 = load ptr, ptr %20, align 8
  %79 = load ptr, ptr %19, align 8
  %80 = getelementptr inbounds %struct._spl_recursive_it_object, ptr %79, i32 0, i32 0
  %81 = load ptr, ptr %80, align 8
  %82 = load i32, ptr %21, align 4
  %83 = sext i32 %82 to i64
  %84 = getelementptr inbounds %struct._spl_sub_iterator, ptr %81, i64 %83
  %85 = getelementptr inbounds %struct._spl_sub_iterator, ptr %84, i32 0, i32 0
  %86 = load ptr, ptr %85, align 8
  %87 = getelementptr inbounds %struct._zend_object_iterator, ptr %86, i32 0, i32 0
  store ptr %78, ptr %7, align 8
  store ptr %87, ptr %8, align 8
  %88 = load ptr, ptr %7, align 8
  %89 = load ptr, ptr %88, align 8
  %90 = load ptr, ptr %7, align 8
  %91 = getelementptr inbounds %struct.zend_get_gc_buffer, ptr %90, i32 0, i32 1
  %92 = load ptr, ptr %91, align 8
  %93 = icmp eq ptr %89, %92
  br i1 %93, label %94, label %96

94:                                               ; preds = %77
  %95 = load ptr, ptr %7, align 8
  call void @zend_get_gc_buffer_grow(ptr noundef %95) #10
  br label %96

96:                                               ; preds = %94, %77
  %97 = load ptr, ptr %7, align 8
  %98 = load ptr, ptr %97, align 8
  store ptr %98, ptr %9, align 8
  %99 = load ptr, ptr %8, align 8
  %100 = load ptr, ptr %9, align 8
  store ptr %99, ptr %100, align 8
  %101 = load ptr, ptr %9, align 8
  %102 = getelementptr inbounds %struct._zval_struct, ptr %101, i32 0, i32 1
  store i32 776, ptr %102, align 8
  %103 = load ptr, ptr %7, align 8
  %104 = load ptr, ptr %103, align 8
  %105 = getelementptr inbounds %struct._zval_struct, ptr %104, i32 1
  store ptr %105, ptr %103, align 8
  br label %106

106:                                              ; preds = %96
  %107 = load i32, ptr %21, align 4
  %108 = add nsw i32 %107, 1
  store i32 %108, ptr %21, align 4
  br label %30

109:                                              ; preds = %30
  br label %110

110:                                              ; preds = %109, %3
  %111 = load ptr, ptr %20, align 8
  %112 = load ptr, ptr %17, align 8
  %113 = load ptr, ptr %18, align 8
  store ptr %111, ptr %4, align 8
  store ptr %112, ptr %5, align 8
  store ptr %113, ptr %6, align 8
  %114 = load ptr, ptr %4, align 8
  %115 = getelementptr inbounds %struct.zend_get_gc_buffer, ptr %114, i32 0, i32 2
  %116 = load ptr, ptr %115, align 8
  %117 = load ptr, ptr %5, align 8
  store ptr %116, ptr %117, align 8
  %118 = load ptr, ptr %4, align 8
  %119 = load ptr, ptr %118, align 8
  %120 = load ptr, ptr %4, align 8
  %121 = getelementptr inbounds %struct.zend_get_gc_buffer, ptr %120, i32 0, i32 2
  %122 = load ptr, ptr %121, align 8
  %123 = ptrtoint ptr %119 to i64
  %124 = ptrtoint ptr %122 to i64
  %125 = sub i64 %123, %124
  %126 = sdiv exact i64 %125, 16
  %127 = trunc i64 %126 to i32
  %128 = load ptr, ptr %6, align 8
  store i32 %127, ptr %128, align 4
  %129 = load ptr, ptr %16, align 8
  %130 = call ptr @zend_std_get_properties(ptr noundef %129)
  ret ptr %130
}