; Function Attrs: nounwind uwtable
define internal ptr @spl_RecursiveIteratorIterator_get_gc(ptr noundef %0, ptr nocapture noundef writeonly %1, ptr nocapture noundef writeonly %2) #0 {
  %4 = getelementptr inbounds i8, ptr %0, i64 -152
  %5 = tail call ptr @zend_get_gc_buffer_create() #10
  %6 = load ptr, ptr %4, align 8
  %.not = icmp eq ptr %6, null
  br i1 %.not, label %.loopexit, label %.preheader

.preheader:                                       ; preds = %3
  %7 = getelementptr inbounds i8, ptr %0, i64 -144
  %8 = load i32, ptr %7, align 8
  %.not4042 = icmp slt i32 %8, 0
  br i1 %.not4042, label %.loopexit, label %.lr.ph

.lr.ph:                                           ; preds = %.preheader
  %9 = getelementptr inbounds i8, ptr %5, i64 8
  %.pre46.pre = load ptr, ptr %5, align 8
  br label %10

10:                                               ; preds = %.lr.ph, %35
  %.pre46 = phi ptr [ %.pre46.pre, %.lr.ph ], [ %39, %35 ]
  %indvars.iv = phi i64 [ 0, %.lr.ph ], [ %indvars.iv.next, %35 ]
  %11 = load ptr, ptr %4, align 8
  %12 = getelementptr inbounds %struct._spl_sub_iterator, ptr %11, i64 %indvars.iv, i32 1
  %13 = getelementptr inbounds i8, ptr %12, i64 8
  %14 = getelementptr inbounds i8, ptr %12, i64 9
  %15 = load i8, ptr %14, align 1
  %.not41 = icmp eq i8 %15, 0
  br i1 %.not41, label %27, label %16

16:                                               ; preds = %10
  %17 = load ptr, ptr %9, align 8
  %18 = icmp eq ptr %.pre46, %17
  br i1 %18, label %19, label %20

19:                                               ; preds = %16
  tail call void @zend_get_gc_buffer_grow(ptr noundef nonnull %5) #10
  %.pre = load ptr, ptr %5, align 8
  br label %20

20:                                               ; preds = %19, %16
  %21 = phi ptr [ %.pre, %19 ], [ %.pre46, %16 ]
  %22 = load ptr, ptr %12, align 8
  %23 = load i32, ptr %13, align 8
  store ptr %22, ptr %21, align 8
  %24 = getelementptr inbounds i8, ptr %21, i64 8
  store i32 %23, ptr %24, align 8
  %25 = load ptr, ptr %5, align 8
  %26 = getelementptr inbounds i8, ptr %25, i64 16
  store ptr %26, ptr %5, align 8
  %.pre45 = load ptr, ptr %4, align 8
  br label %27

27:                                               ; preds = %20, %10
  %28 = phi ptr [ %26, %20 ], [ %.pre46, %10 ]
  %29 = phi ptr [ %.pre45, %20 ], [ %11, %10 ]
  %30 = getelementptr inbounds %struct._spl_sub_iterator, ptr %29, i64 %indvars.iv
  %31 = load ptr, ptr %30, align 8
  %32 = load ptr, ptr %9, align 8
  %33 = icmp eq ptr %28, %32
  br i1 %33, label %34, label %35

34:                                               ; preds = %27
  tail call void @zend_get_gc_buffer_grow(ptr noundef nonnull %5) #10
  %.pre47 = load ptr, ptr %5, align 8
  br label %35

35:                                               ; preds = %34, %27
  %36 = phi ptr [ %.pre47, %34 ], [ %28, %27 ]
  store ptr %31, ptr %36, align 8
  %37 = getelementptr inbounds i8, ptr %36, i64 8
  store i32 776, ptr %37, align 8
  %38 = load ptr, ptr %5, align 8
  %39 = getelementptr inbounds i8, ptr %38, i64 16
  store ptr %39, ptr %5, align 8
  %indvars.iv.next = add nuw nsw i64 %indvars.iv, 1
  %40 = load i32, ptr %7, align 8
  %41 = sext i32 %40 to i64
  %.not40.not = icmp slt i64 %indvars.iv, %41
  br i1 %.not40.not, label %10, label %.loopexit

.loopexit:                                        ; preds = %35, %.preheader, %3
  %42 = getelementptr inbounds i8, ptr %5, i64 16
  %43 = load ptr, ptr %42, align 8
  store ptr %43, ptr %1, align 8
  %44 = load ptr, ptr %5, align 8
  %45 = ptrtoint ptr %44 to i64
  %46 = ptrtoint ptr %43 to i64
  %47 = sub i64 %45, %46
  %48 = lshr exact i64 %47, 4
  %49 = trunc i64 %48 to i32
  store i32 %49, ptr %2, align 4
  %50 = tail call ptr @zend_std_get_properties(ptr noundef nonnull %0) #10
  ret ptr %50
}